target datalayout = "e-m:e-p270:32:32-p271:32:32-p272:64:64-i64:64-i128:128-f80:128-n8:16:32:64-S128"
target triple = "x86_64-pc-linux-gnu"

@.str.14 = private unnamed_addr constant [35 x i8] c"../openssl/test/asn1_decode_test.c\00", align 1
@test_reuse_asn1_object.cn_der = internal global [5 x i8] c"\06\03U\04\06", align 1
@test_reuse_asn1_object.oid_der = internal global [8 x i8] c"\06\06*\03\04\05\06\07", align 1
@.str.20 = private unnamed_addr constant [80 x i8] c"obj = ASN1_OBJECT_create(NID_undef, cn_der, sizeof(cn_der), \22C\22, \22countryName\22)\00", align 1
@.str.21 = private unnamed_addr constant [2 x i8] c"C\00", align 1
@.str.22 = private unnamed_addr constant [12 x i8] c"countryName\00", align 1
@.str.23 = private unnamed_addr constant [43 x i8] c"d2i_ASN1_OBJECT(&obj, &p, sizeof(oid_der))\00", align 1

; Function Attrs: nounwind uwtable
define internal i32 @test_reuse_asn1_object() #0 {
  %1 = alloca i32, align 4
  %2 = alloca ptr, align 8
  %3 = alloca ptr, align 8
  call void @llvm.lifetime.start.p0(i64 4, ptr %1) #4
  store i32 0, ptr %1, align 4, !tbaa !10
  call void @llvm.lifetime.start.p0(i64 8, ptr %2) #4
  call void @llvm.lifetime.start.p0(i64 8, ptr %3) #4
  store ptr @test_reuse_asn1_object.oid_der, ptr %3, align 8, !tbaa !4
  %4 = call ptr @ASN1_OBJECT_create(i32 noundef 0, ptr noundef @test_reuse_asn1_object.cn_der, i32 noundef 5, ptr noundef @.str.21, ptr noundef @.str.22)
  store ptr %4, ptr %2, align 8, !tbaa !14
  %5 = call i32 @test_ptr(ptr noundef @.str.14, i32 noundef 263, ptr noundef @.str.20, ptr noundef %4)
  %6 = icmp ne i32 %5, 0
  br i1 %6, label %8, label %7

7:                                                ; preds = %0
  br label %14

8:                                                ; preds = %0
  %9 = call ptr @d2i_ASN1_OBJECT(ptr noundef %2, ptr noundef %3, i64 noundef 8)
  %10 = call i32 @test_ptr(ptr noundef @.str.14, i32 noundef 266, ptr noundef @.str.23, ptr noundef %9)
  %11 = icmp ne i32 %10, 0
  br i1 %11, label %13, label %12

12:                                               ; preds = %8
  br label %14

13:                                               ; preds = %8
  store i32 1, ptr %1, align 4, !tbaa !10
  br label %14

14:                                               ; preds = %13, %12, %7
  %15 = load ptr, ptr %2, align 8, !tbaa !14
  call void @ASN1_OBJECT_free(ptr noundef %15)
  %16 = load i32, ptr %1, align 4, !tbaa !10
  call void @llvm.lifetime.end.p0(i64 8, ptr %3) #4
  call void @llvm.lifetime.end.p0(i64 8, ptr %2) #4
  call void @llvm.lifetime.end.p0(i64 4, ptr %1) #4
  ret i32 %16
}