; Function Attrs: nounwind uwtable
define internal range(i32 0, 2) i32 @test_reuse_asn1_object() #0 {
  %1 = alloca ptr, align 8
  %2 = alloca ptr, align 8
  call void @llvm.lifetime.start.p0(i64 8, ptr nonnull %1) #4
  call void @llvm.lifetime.start.p0(i64 8, ptr nonnull %2) #4
  store ptr @test_reuse_asn1_object.oid_der, ptr %2, align 8, !tbaa !4
  %3 = tail call ptr @ASN1_OBJECT_create(i32 noundef 0, ptr noundef nonnull @test_reuse_asn1_object.cn_der, i32 noundef 5, ptr noundef nonnull @.str.21, ptr noundef nonnull @.str.22) #4
  store ptr %3, ptr %1, align 8, !tbaa !9
  %4 = tail call i32 @test_ptr(ptr noundef nonnull @.str.14, i32 noundef 263, ptr noundef nonnull @.str.20, ptr noundef %3) #4
  %.not = icmp eq i32 %4, 0
  br i1 %.not, label %8, label %5

5:                                                ; preds = %0
  %6 = call ptr @d2i_ASN1_OBJECT(ptr noundef nonnull %1, ptr noundef nonnull %2, i64 noundef 8) #4
  %7 = call i32 @test_ptr(ptr noundef nonnull @.str.14, i32 noundef 266, ptr noundef nonnull @.str.23, ptr noundef %6) #4
  %.not1 = icmp ne i32 %7, 0
  %spec.select = zext i1 %.not1 to i32
  %.pre = load ptr, ptr %1, align 8, !tbaa !9
  br label %8

8:                                                ; preds = %5, %0
  %9 = phi ptr [ %3, %0 ], [ %.pre, %5 ]
  %.0 = phi i32 [ 0, %0 ], [ %spec.select, %5 ]
  call void @ASN1_OBJECT_free(ptr noundef %9) #4
  call void @llvm.lifetime.end.p0(i64 8, ptr nonnull %2) #4
  call void @llvm.lifetime.end.p0(i64 8, ptr nonnull %1) #4
  ret i32 %.0
}